target datalayout = "e-m:e-p270:32:32-p271:32:32-p272:64:64-i64:64-i128:128-f80:128-n8:16:32:64-S128"
target triple = "x86_64-pc-linux-gnu"

%"class.std::set" = type { %"class.std::_Rb_tree" }
%"class.std::_Rb_tree" = type { %"struct.std::_Rb_tree<std::__cxx11::basic_string<char>, std::__cxx11::basic_string<char>, std::_Identity<std::__cxx11::basic_string<char>>, std::less<std::__cxx11::basic_string<char>>>::_Rb_tree_impl" }
%"struct.std::_Rb_tree<std::__cxx11::basic_string<char>, std::__cxx11::basic_string<char>, std::_Identity<std::__cxx11::basic_string<char>>, std::less<std::__cxx11::basic_string<char>>>::_Rb_tree_impl" = type { [8 x i8], %"struct.std::_Rb_tree_header" }
%"struct.std::_Rb_tree_header" = type { %"struct.std::_Rb_tree_node_base", i64 }
%"struct.std::_Rb_tree_node_base" = type { i32, ptr, ptr, ptr }
%class.V3Global = type { ptr, ptr, ptr, %class.VWidthMinUsage, %"struct.std::atomic", i8, i8, i8, i8, i8, i8, i8, i8, i8, i8, i8, i8, i8, i8, i8, i8, i8, %"class.std::unordered_map", %"class.std::unordered_set", %"class.std::thread::id", %class.V3Options }
%class.VWidthMinUsage = type { i8 }
%"struct.std::atomic" = type { %"struct.std::__atomic_base" }
%"struct.std::__atomic_base" = type { i32 }
%"class.std::unordered_map" = type { %"class.std::_Hashtable" }
%"class.std::_Hashtable" = type { ptr, i64, %"struct.std::__detail::_Hash_node_base", i64, %"struct.std::__detail::_Prime_rehash_policy", ptr }
%"struct.std::__detail::_Hash_node_base" = type { ptr }
%"struct.std::__detail::_Prime_rehash_policy" = type { float, i64 }
%"class.std::unordered_set" = type { %"class.std::_Hashtable.17" }
%"class.std::_Hashtable.17" = type { ptr, i64, %"struct.std::__detail::_Hash_node_base", i64, %"struct.std::__detail::_Prime_rehash_policy", ptr }
%"class.std::thread::id" = type { i64 }
%class.V3Options = type <{ ptr, %"class.std::set", %"class.std::vector", %"class.std::vector", %"class.std::vector", %"class.std::set", %"class.std::set", %"class.std::set", %"class.std::set", %"class.std::set", %"class.std::set", %"class.std::set", %"class.std::vector", %"class.std::set", %"class.std::vector", %"class.std::map", %"class.std::map", %"class.std::map.44", %"class.std::map.49", %"class.std::set", i8, i8, i8, i8, i8, i8, i8, i8, i8, i8, i8, i8, i8, i8, i8, i8, i8, i8, i8, i8, i8, i8, i8, i8, i8, i8, i8, i8, i8, i8, i8, i8, i8, i8, i8, i8, i8, i8, i8, i8, i8, i8, i8, i8, i8, i8, i8, i8, i8, i8, i8, i8, i8, i8, i8, i8, i8, i8, i8, i8, i8, i8, i8, i8, i8, i8, i8, i8, i8, i8, i8, i8, i8, i8, %class.VOptionBool, i8, i8, i8, i8, i8, i8, i8, i8, i8, i8, i8, i8, i8, i32, i32, i32, i32, i32, i32, i32, i32, i32, i32, i8, i8, [2 x i8], i32, %class.VOptionBool, [3 x i8], i32, i32, i32, i32, i32, i32, i32, i32, i32, i32, %class.VOptionBool, i8, [2 x i8], i32, i32, %class.VTimescale, %class.VTimescale, %class.VTimescale, %class.VTimescale, i32, %class.TraceFormat, [3 x i8], i32, i32, i32, i32, i32, i32, i32, i32, i32, %"class.std::__cxx11::basic_string", %"class.std::__cxx11::basic_string", %"class.std::__cxx11::basic_string", %"class.std::__cxx11::basic_string", %"class.std::__cxx11::basic_string", %"class.std::__cxx11::basic_string", %"class.std::__cxx11::basic_string", %"class.std::__cxx11::basic_string", %"class.std::__cxx11::basic_string", %"class.std::__cxx11::basic_string", %"class.std::__cxx11::basic_string", %"class.std::__cxx11::basic_string", %"class.std::__cxx11::basic_string", %"class.std::__cxx11::basic_string", %"class.std::__cxx11::basic_string", %"class.std::__cxx11::basic_string", %"class.std::__cxx11::basic_string", %"class.std::__cxx11::basic_string", %"class.std::__cxx11::basic_string", %"class.std::__cxx11::basic_string", %class.V3LangCode, i8, i8, i8, i8, i8, i8, i8, i8, i8, i8, i8, i8, i8, i8, i8, i8, i8, i8, i8, i8, i8, i8, i8, i8, i8, i8, i8, i8, i8, i8, i8, i8, i8, i8, [5 x i8] }>
%"class.std::vector" = type { %"struct.std::_Vector_base" }
%"struct.std::_Vector_base" = type { %"struct.std::_Vector_base<std::__cxx11::basic_string<char>, std::allocator<std::__cxx11::basic_string<char>>>::_Vector_impl" }
%"struct.std::_Vector_base<std::__cxx11::basic_string<char>, std::allocator<std::__cxx11::basic_string<char>>>::_Vector_impl" = type { %"struct.std::_Vector_base<std::__cxx11::basic_string<char>, std::allocator<std::__cxx11::basic_string<char>>>::_Vector_impl_data" }
%"struct.std::_Vector_base<std::__cxx11::basic_string<char>, std::allocator<std::__cxx11::basic_string<char>>>::_Vector_impl_data" = type { ptr, ptr, ptr }
%"class.std::map" = type { %"class.std::_Rb_tree.39" }
%"class.std::_Rb_tree.39" = type { %"struct.std::_Rb_tree<const std::__cxx11::basic_string<char>, std::pair<const std::__cxx11::basic_string<char>, unsigned int>, std::_Select1st<std::pair<const std::__cxx11::basic_string<char>, unsigned int>>, std::less<const std::__cxx11::basic_string<char>>>::_Rb_tree_impl" }
%"struct.std::_Rb_tree<const std::__cxx11::basic_string<char>, std::pair<const std::__cxx11::basic_string<char>, unsigned int>, std::_Select1st<std::pair<const std::__cxx11::basic_string<char>, unsigned int>>, std::less<const std::__cxx11::basic_string<char>>>::_Rb_tree_impl" = type { [8 x i8], %"struct.std::_Rb_tree_header" }
%"class.std::map.44" = type { %"class.std::_Rb_tree.45" }
%"class.std::_Rb_tree.45" = type { %"struct.std::_Rb_tree<const std::__cxx11::basic_string<char>, std::pair<const std::__cxx11::basic_string<char>, std::__cxx11::basic_string<char>>, std::_Select1st<std::pair<const std::__cxx11::basic_string<char>, std::__cxx11::basic_string<char>>>, std::less<const std::__cxx11::basic_string<char>>>::_Rb_tree_impl" }
%"struct.std::_Rb_tree<const std::__cxx11::basic_string<char>, std::pair<const std::__cxx11::basic_string<char>, std::__cxx11::basic_string<char>>, std::_Select1st<std::pair<const std::__cxx11::basic_string<char>, std::__cxx11::basic_string<char>>>, std::less<const std::__cxx11::basic_string<char>>>::_Rb_tree_impl" = type { [8 x i8], %"struct.std::_Rb_tree_header" }
%"class.std::map.49" = type { %"class.std::_Rb_tree.50" }
%"class.std::_Rb_tree.50" = type { %"struct.std::_Rb_tree<const std::__cxx11::basic_string<char>, std::pair<const std::__cxx11::basic_string<char>, V3HierarchicalBlockOption>, std::_Select1st<std::pair<const std::__cxx11::basic_string<char>, V3HierarchicalBlockOption>>, std::less<const std::__cxx11::basic_string<char>>>::_Rb_tree_impl" }
%"struct.std::_Rb_tree<const std::__cxx11::basic_string<char>, std::pair<const std::__cxx11::basic_string<char>, V3HierarchicalBlockOption>, std::_Select1st<std::pair<const std::__cxx11::basic_string<char>, V3HierarchicalBlockOption>>, std::less<const std::__cxx11::basic_string<char>>>::_Rb_tree_impl" = type { [8 x i8], %"struct.std::_Rb_tree_header" }
%class.VOptionBool = type { i8 }
%class.VTimescale = type { i8 }
%class.TraceFormat = type { i8 }
%"class.std::__cxx11::basic_string" = type { %"struct.std::__cxx11::basic_string<char>::_Alloc_hider", i64, %union.anon }
%"struct.std::__cxx11::basic_string<char>::_Alloc_hider" = type { ptr }
%union.anon = type { i64, [8 x i8] }
%class.V3LangCode = type { i8 }
%class.V3OutFormatter = type <{ ptr, %"class.std::__cxx11::basic_string", i8, [3 x i8], i32, i32, i32, i32, i32, i32, i32, i8, i8, [2 x i8], i32, %"class.std::stack", i32, [4 x i8] }>
%"class.std::stack" = type { %"class.std::deque" }
%"class.std::deque" = type { %"class.std::_Deque_base" }
%"class.std::_Deque_base" = type { %"struct.std::_Deque_base<int, std::allocator<int>>::_Deque_impl" }
%"struct.std::_Deque_base<int, std::allocator<int>>::_Deque_impl" = type { %"struct.std::_Deque_base<int, std::allocator<int>>::_Deque_impl_data" }
%"struct.std::_Deque_base<int, std::allocator<int>>::_Deque_impl_data" = type { ptr, i64, %"struct.std::_Deque_iterator", %"struct.std::_Deque_iterator" }
%"struct.std::_Deque_iterator" = type { ptr, ptr, ptr, ptr }

@v3Global = external global %class.V3Global, align 8

; Function Attrs: mustprogress nounwind uwtable
define linkonce_odr dso_local noundef zeroext i1 @_ZNK9V3Options10decorationEv(ptr noundef nonnull align 8 dereferenceable(1720) %0) #7 comdat align 2 {
  %2 = alloca ptr, align 8
  store ptr %0, ptr %2, align 8, !tbaa !50
  %3 = load ptr, ptr %2, align 8
  %4 = getelementptr inbounds nuw %class.V3Options, ptr %3, i32 0, i32 51
  %5 = load i8, ptr %4, align 1, !tbaa !171, !range !19, !noundef !20
  %6 = trunc i8 %5 to i1
  ret i1 %6
}

; Function Attrs: mustprogress uwtable
define dso_local void @_ZN14V3OutFormatter14putcNoTrackingEc(ptr noundef nonnull align 8 dereferenceable(164) %0, i8 noundef signext %1) #5 align 2 {
  %3 = alloca ptr, align 8
  %4 = alloca i8, align 1
  store ptr %0, ptr %3, align 8, !tbaa !144
  store i8 %1, ptr %4, align 1, !tbaa !52
  %5 = load ptr, ptr %3, align 8
  %6 = call noundef zeroext i1 @_ZNK9V3Options10decorationEv(ptr noundef nonnull align 8 dereferenceable(1720) getelementptr inbounds nuw (%class.V3Global, ptr @v3Global, i32 0, i32 25))
  br i1 %6, label %12, label %7

7:                                                ; preds = %2
  %8 = load i8, ptr %4, align 1, !tbaa !52
  %9 = load ptr, ptr %5, align 8, !tbaa !11
  %10 = getelementptr inbounds ptr, ptr %9, i64 2
  %11 = load ptr, ptr %10, align 8
  call void %11(ptr noundef nonnull align 8 dereferenceable(164) %5, i8 noundef signext %8)
  br label %42

12:                                               ; preds = %2
  %13 = load i8, ptr %4, align 1, !tbaa !52
  %14 = sext i8 %13 to i32
  switch i32 %14, label %32 [
    i32 10, label %15
    i32 9, label %21
    i32 32, label %28
    i32 40, label %28
    i32 124, label %28
    i32 38, label %28
  ]

15:                                               ; preds = %12
  %16 = getelementptr inbounds nuw %class.V3OutFormatter, ptr %5, i32 0, i32 6
  %17 = load i32, ptr %16, align 4, !tbaa !158
  %18 = add nsw i32 %17, 1
  store i32 %18, ptr %16, align 4, !tbaa !158
  %19 = getelementptr inbounds nuw %class.V3OutFormatter, ptr %5, i32 0, i32 7
  store i32 0, ptr %19, align 8, !tbaa !159
  %20 = getelementptr inbounds nuw %class.V3OutFormatter, ptr %5, i32 0, i32 8
  store i32 1, ptr %20, align 4, !tbaa !160
  br label %37

21:                                               ; preds = %12
  %22 = getelementptr inbounds nuw %class.V3OutFormatter, ptr %5, i32 0, i32 7
  %23 = load i32, ptr %22, align 8, !tbaa !159
  %24 = add nsw i32 %23, 9
  %25 = sdiv i32 %24, 8
  %26 = mul nsw i32 %25, 8
  %27 = getelementptr inbounds nuw %class.V3OutFormatter, ptr %5, i32 0, i32 7
  store i32 %26, ptr %27, align 8, !tbaa !159
  br label %37

28:                                               ; preds = %12, %12, %12, %12
  %29 = getelementptr inbounds nuw %class.V3OutFormatter, ptr %5, i32 0, i32 7
  %30 = load i32, ptr %29, align 8, !tbaa !159
  %31 = add nsw i32 %30, 1
  store i32 %31, ptr %29, align 8, !tbaa !159
  br label %37

32:                                               ; preds = %12
  %33 = getelementptr inbounds nuw %class.V3OutFormatter, ptr %5, i32 0, i32 7
  %34 = load i32, ptr %33, align 8, !tbaa !159
  %35 = add nsw i32 %34, 1
  store i32 %35, ptr %33, align 8, !tbaa !159
  %36 = getelementptr inbounds nuw %class.V3OutFormatter, ptr %5, i32 0, i32 8
  store i32 0, ptr %36, align 4, !tbaa !160
  br label %37

37:                                               ; preds = %32, %28, %21, %15
  %38 = load i8, ptr %4, align 1, !tbaa !52
  %39 = load ptr, ptr %5, align 8, !tbaa !11
  %40 = getelementptr inbounds ptr, ptr %39, i64 2
  %41 = load ptr, ptr %40, align 8
  call void %41(ptr noundef nonnull align 8 dereferenceable(164) %5, i8 noundef signext %38)
  br label %42

42:                                               ; preds = %37, %7
  ret void
}