; Function Attrs: mustprogress uwtable
define dso_local void @_ZN14V3OutFormatter14putcNoTrackingEc(ptr noundef nonnull align 8 dereferenceable(164) %0, i8 noundef signext %1) local_unnamed_addr #4 align 2 {
  %3 = load i8, ptr getelementptr inbounds nuw (i8, ptr @v3Global, i64 1007), align 1, !tbaa !172, !range !36, !noundef !37
  %4 = trunc nuw i8 %3 to i1
  br i1 %4, label %5, label %27

5:                                                ; preds = %2
  switch i8 %1, label %22 [
    i8 10, label %6
    i8 9, label %12
    i8 32, label %18
    i8 40, label %18
    i8 124, label %18
    i8 38, label %18
  ]

6:                                                ; preds = %5
  %7 = getelementptr inbounds nuw i8, ptr %0, i64 52
  %8 = load i32, ptr %7, align 4, !tbaa !168
  %9 = add nsw i32 %8, 1
  store i32 %9, ptr %7, align 4, !tbaa !168
  %10 = getelementptr inbounds nuw i8, ptr %0, i64 56
  store i32 0, ptr %10, align 8, !tbaa !183
  %11 = getelementptr inbounds nuw i8, ptr %0, i64 60
  store i32 1, ptr %11, align 4, !tbaa !184
  br label %27

12:                                               ; preds = %5
  %13 = getelementptr inbounds nuw i8, ptr %0, i64 56
  %14 = load i32, ptr %13, align 8, !tbaa !183
  %15 = add nsw i32 %14, 9
  %16 = sdiv i32 %15, 8
  %17 = shl nsw i32 %16, 3
  store i32 %17, ptr %13, align 8, !tbaa !183
  br label %27

18:                                               ; preds = %5, %5, %5, %5
  %19 = getelementptr inbounds nuw i8, ptr %0, i64 56
  %20 = load i32, ptr %19, align 8, !tbaa !183
  %21 = add nsw i32 %20, 1
  store i32 %21, ptr %19, align 8, !tbaa !183
  br label %27

22:                                               ; preds = %5
  %23 = getelementptr inbounds nuw i8, ptr %0, i64 56
  %24 = load i32, ptr %23, align 8, !tbaa !183
  %25 = add nsw i32 %24, 1
  store i32 %25, ptr %23, align 8, !tbaa !183
  %26 = getelementptr inbounds nuw i8, ptr %0, i64 60
  store i32 0, ptr %26, align 4, !tbaa !184
  br label %27

27:                                               ; preds = %6, %12, %18, %22, %2
  %28 = load ptr, ptr %0, align 8, !tbaa !17
  %29 = getelementptr inbounds nuw i8, ptr %28, i64 16
  %30 = load ptr, ptr %29, align 8
  tail call void %30(ptr noundef nonnull align 8 dereferenceable(164) %0, i8 noundef signext %1)
  ret void
}